target datalayout = "e-m:e-p270:32:32-p271:32:32-p272:64:64-i64:64-i128:128-f80:128-n8:16:32:64-S128"
target triple = "x86_64-pc-linux-gnu"

%struct.candump_state_t = type { i8, %struct.msg_t, ptr, i64, i32, ptr, ptr, %struct.token_t }
%struct.msg_t = type { %struct.nstime_t, i32, i8, i8, %struct.msg_data_t }
%struct.nstime_t = type { i64, i32 }
%struct.msg_data_t = type { i8, [64 x i8] }
%struct.token_t = type { i64, i64 }

; Function Attrs: null_pointer_is_valid sspstrong uwtable
define internal zeroext i1 @candump_parse(ptr noundef %0, ptr noundef %1, ptr noundef %2, ptr noundef %3, ptr noundef %4) #0 {
  %6 = alloca i1, align 1
  %7 = alloca ptr, align 8
  %8 = alloca ptr, align 8
  %9 = alloca ptr, align 8
  %10 = alloca ptr, align 8
  %11 = alloca ptr, align 8
  %12 = alloca %struct.candump_state_t, align 8
  %13 = alloca i8, align 1
  %14 = alloca i64, align 8
  %15 = alloca i32, align 4
  store ptr %0, ptr %7, align 8
  store ptr %1, ptr %8, align 8
  store ptr %2, ptr %9, align 8
  store ptr %3, ptr %10, align 8
  store ptr %4, ptr %11, align 8
  call void @llvm.lifetime.start.p0(i64 152, ptr %12) #12
  call void @llvm.memset.p0.i64(ptr align 8 %12, i8 0, i64 152, i1 false)
  call void @llvm.lifetime.start.p0(i64 1, ptr %13) #12
  call void @llvm.lifetime.start.p0(i64 8, ptr %14) #12
  %16 = load ptr, ptr %7, align 8
  %17 = getelementptr inbounds nuw %struct.candump_state_t, ptr %12, i32 0, i32 2
  store ptr %16, ptr %17, align 8
  br label %18

18:                                               ; preds = %59, %5
  %19 = load ptr, ptr %7, align 8
  %20 = call i32 @file_eof(ptr noundef %19)
  %21 = icmp ne i32 %20, 0
  br i1 %21, label %22, label %23

22:                                               ; preds = %18
  store i1 false, ptr %6, align 1
  store i32 1, ptr %15, align 4
  br label %78

23:                                               ; preds = %18
  %24 = load ptr, ptr %7, align 8
  %25 = call i64 @file_tell(ptr noundef %24)
  store i64 %25, ptr %14, align 8
  %26 = getelementptr inbounds nuw %struct.candump_state_t, ptr %12, i32 0, i32 3
  store i64 0, ptr %26, align 8
  %27 = load ptr, ptr %10, align 8
  %28 = load ptr, ptr %11, align 8
  %29 = call zeroext i1 @run_candump_parser(ptr noundef %12, ptr noundef %27, ptr noundef %28)
  %30 = zext i1 %29 to i8
  store i8 %30, ptr %13, align 1
  %31 = load ptr, ptr %7, align 8
  %32 = load i64, ptr %14, align 8
  %33 = getelementptr inbounds nuw %struct.candump_state_t, ptr %12, i32 0, i32 3
  %34 = load i64, ptr %33, align 8
  %35 = add i64 %32, %34
  %36 = load ptr, ptr %10, align 8
  %37 = call i64 @file_seek(ptr noundef %31, i64 noundef %35, i32 noundef 0, ptr noundef %36)
  %38 = icmp eq i64 %37, -1
  br i1 %38, label %39, label %50

39:                                               ; preds = %23
  %40 = load ptr, ptr %11, align 8
  %41 = load ptr, ptr %40, align 8
  call void @g_free(ptr noundef %41)
  %42 = call ptr @__errno_location() #11
  %43 = load i32, ptr %42, align 4
  %44 = load ptr, ptr %10, align 8
  store i32 %43, ptr %44, align 4
  %45 = call ptr @__errno_location() #11
  %46 = load i32, ptr %45, align 4
  %47 = call ptr @g_strerror(i32 noundef %46) #11
  %48 = call noalias ptr @g_strdup(ptr noundef %47)
  %49 = load ptr, ptr %11, align 8
  store ptr %48, ptr %49, align 8
  store i1 false, ptr %6, align 1
  store i32 1, ptr %15, align 4
  br label %78

50:                                               ; preds = %23
  br label %51

51:                                               ; preds = %50
  %52 = load i8, ptr %13, align 1, !range !6, !noundef !7
  %53 = trunc i8 %52 to i1
  br i1 %53, label %54, label %59

54:                                               ; preds = %51
  %55 = getelementptr inbounds nuw %struct.candump_state_t, ptr %12, i32 0, i32 0
  %56 = load i8, ptr %55, align 8, !range !6, !noundef !7
  %57 = trunc i8 %56 to i1
  %58 = xor i1 %57, true
  br label %59

59:                                               ; preds = %54, %51
  %60 = phi i1 [ false, %51 ], [ %58, %54 ]
  br i1 %60, label %18, label %61, !llvm.loop !8

61:                                               ; preds = %59
  %62 = load i8, ptr %13, align 1, !range !6, !noundef !7
  %63 = trunc i8 %62 to i1
  br i1 %63, label %65, label %64

64:                                               ; preds = %61
  store i1 false, ptr %6, align 1
  store i32 1, ptr %15, align 4
  br label %78

65:                                               ; preds = %61
  %66 = load ptr, ptr %9, align 8
  %67 = icmp ne ptr %66, null
  br i1 %67, label %68, label %71

68:                                               ; preds = %65
  %69 = load i64, ptr %14, align 8
  %70 = load ptr, ptr %9, align 8
  store i64 %69, ptr %70, align 8
  br label %71

71:                                               ; preds = %68, %65
  %72 = load ptr, ptr %8, align 8
  %73 = icmp ne ptr %72, null
  br i1 %73, label %74, label %77

74:                                               ; preds = %71
  %75 = load ptr, ptr %8, align 8
  %76 = getelementptr inbounds nuw %struct.candump_state_t, ptr %12, i32 0, i32 1
  call void @llvm.memcpy.p0.p0.i64(ptr align 8 %75, ptr align 8 %76, i64 88, i1 false)
  br label %77

77:                                               ; preds = %74, %71
  store i1 true, ptr %6, align 1
  store i32 1, ptr %15, align 4
  br label %78

78:                                               ; preds = %77, %64, %39, %22
  call void @llvm.lifetime.end.p0(i64 8, ptr %14) #12
  call void @llvm.lifetime.end.p0(i64 1, ptr %13) #12
  call void @llvm.lifetime.end.p0(i64 152, ptr %12) #12
  %79 = load i1, ptr %6, align 1
  ret i1 %79
}