; Function Attrs: null_pointer_is_valid sspstrong uwtable
define internal fastcc noundef zeroext i1 @candump_parse(ptr noundef %0, ptr noundef writeonly captures(address_is_null) %1, ptr noundef writeonly captures(address_is_null) %2, ptr noundef %3, ptr noundef %4) unnamed_addr #0 {
  %6 = alloca %struct.candump_state_t, align 8
  call void @llvm.lifetime.start.p0(i64 152, ptr nonnull %6) #8
  call void @llvm.memset.p0.i64(ptr noundef nonnull align 8 dereferenceable(152) %6, i8 0, i64 152, i1 false)
  %7 = getelementptr inbounds nuw i8, ptr %6, i64 96
  store ptr %0, ptr %7, align 8
  %8 = getelementptr inbounds nuw i8, ptr %6, i64 104
  br label %9

9:                                                ; preds = %24, %5
  %10 = call i32 @file_eof(ptr noundef %0)
  %.not = icmp eq i32 %10, 0
  br i1 %.not, label %11, label %.loopexit

11:                                               ; preds = %9
  %12 = call i64 @file_tell(ptr noundef %0)
  store i64 0, ptr %8, align 8
  %13 = call zeroext i1 @run_candump_parser(ptr noundef nonnull %6, ptr noundef %3, ptr noundef %4)
  %14 = load i64, ptr %8, align 8
  %15 = add i64 %14, %12
  %16 = call i64 @file_seek(ptr noundef %0, i64 noundef %15, i32 noundef 0, ptr noundef %3)
  %17 = icmp eq i64 %16, -1
  br i1 %17, label %18, label %24

18:                                               ; preds = %11
  %19 = load ptr, ptr %4, align 8
  call void @g_free(ptr noundef %19)
  %20 = tail call ptr @__errno_location() #7
  %21 = load i32, ptr %20, align 4
  store i32 %21, ptr %3, align 4
  %22 = call ptr @g_strerror(i32 noundef %21) #7
  %23 = call noalias ptr @g_strdup(ptr noundef %22)
  store ptr %23, ptr %4, align 8
  br label %.loopexit

24:                                               ; preds = %11
  %25 = load i8, ptr %6, align 8, !range !6
  %26 = trunc nuw i8 %25 to i1
  %not. = xor i1 %13, true
  %27 = select i1 %not., i1 true, i1 %26
  br i1 %27, label %28, label %9, !llvm.loop !7

28:                                               ; preds = %24
  br i1 %13, label %29, label %.loopexit

29:                                               ; preds = %28
  %.not20 = icmp eq ptr %2, null
  br i1 %.not20, label %31, label %30

30:                                               ; preds = %29
  store i64 %12, ptr %2, align 8
  br label %31

31:                                               ; preds = %30, %29
  %.not21 = icmp eq ptr %1, null
  br i1 %.not21, label %.loopexit, label %32

32:                                               ; preds = %31
  %33 = getelementptr inbounds nuw i8, ptr %6, i64 8
  call void @llvm.memcpy.p0.p0.i64(ptr noundef nonnull align 8 dereferenceable(88) %1, ptr noundef nonnull align 8 dereferenceable(88) %33, i64 88, i1 false)
  br label %.loopexit

.loopexit:                                        ; preds = %9, %31, %32, %28, %18
  %.0 = phi i1 [ false, %18 ], [ false, %28 ], [ true, %32 ], [ true, %31 ], [ false, %9 ]
  call void @llvm.lifetime.end.p0(i64 152, ptr nonnull %6) #8
  ret i1 %.0
}